Certificate:
    Data:
        Version: 3 (0x2)
        Serial Number:
            c2:2b:c8:49:39:98:fd:56:ef:1c:cf:de:d1:2f:75:17
        Signature Algorithm: sha256WithRSAEncryption
        Issuer: CN=main_server.local
        Validity
            Not Before: May 12 10:59:15 2023 GMT
            Not After : Aug 14 10:59:15 2025 GMT
        Subject: CN=host
        Subject Public Key Info:
            Public Key Algorithm: rsaEncryption
                Public-Key: (2048 bit)
                Modulus:
                    00:d2:c5:32:e3:ec:06:50:54:bc:ae:4e:87:53:65:
                    ca:b2:42:8a:25:7a:c6:62:a6:b8:55:d3:d3:1b:42:
                    f3:bf:7c:2b:c9:3d:c5:7f:e6:b2:55:8f:2a:ff:34:
                    78:83:b8:9d:2e:20:79:9b:46:e0:ed:c7:ea:65:22:
                    eb:b7:fc:29:46:90:fb:83:d5:2c:e1:9f:6e:85:66:
                    40:9b:b7:e8:df:ad:aa:6c:70:4d:8b:e4:79:79:68:
                    e9:92:a9:1f:d6:e2:4f:16:01:bd:03:da:5a:5e:c0:
                    19:c1:18:b9:45:a8:30:1a:ba:0e:57:a1:0e:6c:18:
                    b9:dd:6e:35:c0:d5:09:12:fe:dd:ab:d6:eb:6b:0d:
                    45:41:d6:f5:e5:06:99:21:ca:ec:0d:5b:e7:25:42:
                    70:86:bf:0b:66:1f:60:39:04:8b:47:52:ca:4f:90:
                    41:75:d6:99:81:b8:8a:b4:4b:d3:20:79:f8:62:6f:
                    db:7d:84:0f:6c:0a:ba:93:08:d1:39:0a:79:83:1d:
                    01:98:95:e2:db:89:d2:02:de:58:49:af:ab:a5:24:
                    40:56:f1:ae:e8:ce:35:23:b0:ae:65:a4:38:b0:35:
                    bd:fa:33:52:bb:5e:82:e3:4c:bc:0c:23:85:f3:d7:
                    4e:62:0d:c7:33:fe:c0:96:0c:ed:0b:44:8c:c4:28:
                    9e:a9
                Exponent: 65537 (0x10001)
        X509v3 extensions:
            X509v3 Basic Constraints: 
                CA:FALSE
            X509v3 Subject Key Identifier: 
                39:38:3B:41:33:85:BC:7C:93:C2:B7:47:21:34:90:1C:98:3A:FD:8B
            X509v3 Authority Key Identifier: 
                keyid:B0:45:2A:82:AC:6C:72:86:0E:B3:22:4A:E4:7C:C9:86:41:66:90:DF
                DirName:/CN=main_server.local
                serial:5B:84:9B:38:8C:53:60:E6:48:B3:38:4E:E1:85:53:71:23:06:0E:24
            X509v3 Extended Key Usage: 
                TLS Web Client Authentication
            X509v3 Key Usage: 
                Digital Signature
    Signature Algorithm: sha256WithRSAEncryption
    Signature Value:
        4b:01:d5:19:e7:bd:da:a6:43:6f:ea:4d:8e:3f:0b:1c:fc:57:
        de:53:ba:b7:9d:e4:d8:59:5d:d7:2c:b5:a4:42:2c:8e:1e:40:
        5e:19:a3:35:e6:6b:c2:76:8a:af:68:f0:fb:52:17:65:0d:b1:
        2e:bd:66:ee:78:61:50:0e:30:9a:bd:5f:10:7b:68:25:cf:1f:
        45:21:d0:53:c1:51:1f:8a:6f:fb:e9:d0:67:28:54:d9:71:f6:
        67:51:7c:59:d1:59:82:20:28:15:81:90:38:f2:d2:de:ab:36:
        ff:64:66:0e:3d:16:d3:3c:fc:17:61:fb:a0:eb:a8:bb:be:24:
        2d:d7:66:07:3d:96:78:c7:bd:e6:55:da:29:ac:49:7b:8e:ce:
        45:a4:30:52:8e:0f:26:6b:dd:c2:52:7a:db:4a:f7:58:55:10:
        12:81:20:89:71:42:4a:bb:20:51:ca:4c:91:02:f0:f0:66:08:
        67:9b:67:55:8a:bf:41:d4:68:a5:c1:84:f6:02:a7:48:fd:3a:
        61:cd:8a:f6:5c:8a:02:de:01:2a:7c:3b:7f:dc:32:73:ae:24:
        e6:46:0c:3d:2c:97:e8:97:3c:55:e1:4d:2c:fa:2e:22:6e:cd:
        e0:29:f1:a6:b8:1f:df:e4:e5:16:70:d2:e4:20:38:99:65:08:
        da:d4:3e:04
-----BEGIN CERTIFICATE-----
MIIDXzCCAkegAwIBAgIRAMIryEk5mP1W7xzP3tEvdRcwDQYJKoZIhvcNAQELBQAw
HDEaMBgGA1UEAwwRbWFpbl9zZXJ2ZXIubG9jYWwwHhcNMjMwNTEyMTA1OTE1WhcN
MjUwODE0MTA1OTE1WjAPMQ0wCwYDVQQDDARob3N0MIIBIjANBgkqhkiG9w0BAQEF
AAOCAQ8AMIIBCgKCAQEA0sUy4+wGUFS8rk6HU2XKskKKJXrGYqa4VdPTG0Lzv3wr
yT3Ff+ayVY8q/zR4g7idLiB5m0bg7cfqZSLrt/wpRpD7g9Us4Z9uhWZAm7fo362q
bHBNi+R5eWjpkqkf1uJPFgG9A9paXsAZwRi5RagwGroOV6EObBi53W41wNUJEv7d
q9braw1FQdb15QaZIcrsDVvnJUJwhr8LZh9gOQSLR1LKT5BBddaZgbiKtEvTIHn4
Ym/bfYQPbAq6kwjROQp5gx0BmJXi24nSAt5YSa+rpSRAVvGu6M41I7CuZaQ4sDW9
+jNSu16C40y8DCOF89dOYg3HM/7AlgztC0SMxCieqQIDAQABo4GoMIGlMAkGA1Ud
EwQCMAAwHQYDVR0OBBYEFDk4O0Ezhbx8k8K3RyE0kByYOv2LMFcGA1UdIwRQME6A
FLBFKoKsbHKGDrMiSuR8yYZBZpDfoSCkHjAcMRowGAYDVQQDDBFtYWluX3NlcnZl
ci5sb2NhbIIUW4SbOIxTYOZIszhO4YVTcSMGDiQwEwYDVR0lBAwwCgYIKwYBBQUH
AwIwCwYDVR0PBAQDAgeAMA0GCSqGSIb3DQEBCwUAA4IBAQBLAdUZ573apkNv6k2O
Pwsc/FfeU7q3neTYWV3XLLWkQiyOHkBeGaM15mvCdoqvaPD7UhdlDbEuvWbueGFQ
DjCavV8Qe2glzx9FIdBTwVEfim/76dBnKFTZcfZnUXxZ0VmCICgVgZA48tLeqzb/
ZGYOPRbTPPwXYfug66i7viQt12YHPZZ4x73mVdoprEl7js5FpDBSjg8ma93CUnrb
SvdYVRASgSCJcUJKuyBRykyRAvDwZghnm2dVir9B1GilwYT2AqdI/TphzYr2XIoC
3gEqfDt/3DJzriTmRgw9LJfolzxV4U0s+i4ibs3gKfGmuB/f5OUWcNLkIDiZZQja
1D4E
-----END CERTIFICATE-----
