Certificate:
    Data:
        Version: 3 (0x2)
        Serial Number:
            4a:11:9f:5d:c9:23:bc:a9:2e:99:61:2c:5e:75:b1:12
        Signature Algorithm: sha256WithRSAEncryption
        Issuer: CN=main_server.local
        Validity
            Not Before: May 12 10:59:13 2023 GMT
            Not After : Aug 14 10:59:13 2025 GMT
        Subject: CN=server
        Subject Public Key Info:
            Public Key Algorithm: rsaEncryption
                Public-Key: (2048 bit)
                Modulus:
                    00:e7:bf:5d:ce:f8:79:f5:98:c7:32:dd:af:42:e8:
                    e0:b2:b0:db:8e:74:37:df:61:dc:00:64:f6:ac:44:
                    d6:8a:7f:aa:b5:2f:32:f7:eb:89:30:9e:c6:68:93:
                    2e:6e:d8:28:18:07:62:77:c1:86:48:a3:44:ee:72:
                    d6:47:71:b1:20:74:bf:a5:d6:b6:a0:08:6d:63:52:
                    08:87:80:49:58:51:c2:1c:09:9d:62:01:c1:44:10:
                    77:75:ba:dc:56:18:cf:44:9a:88:c1:e3:02:af:e3:
                    8a:b3:db:8b:56:25:7d:0e:0e:eb:ef:32:63:88:66:
                    86:e6:87:ea:4f:80:c0:e3:aa:b8:9f:b7:d7:e2:8c:
                    bb:13:41:16:e2:a2:3b:35:fb:00:fc:14:bd:d9:9c:
                    e6:5f:31:90:83:28:19:66:be:e3:57:28:99:2d:93:
                    4c:65:4b:f4:88:a8:be:cc:ad:1b:2c:77:7f:71:9d:
                    3b:d7:2d:22:c4:dc:cb:3a:49:6f:a6:48:1a:6d:93:
                    de:2f:59:60:d6:6d:df:e0:e1:d7:8a:85:d4:1b:2f:
                    ae:70:0e:78:1c:ee:b9:a6:24:64:87:0a:28:7d:33:
                    6e:03:a4:71:5e:b1:5c:32:a8:44:47:d9:47:a2:37:
                    04:a7:cd:f0:fe:5a:63:57:9b:0e:a9:fd:f2:d2:d2:
                    01:cd
                Exponent: 65537 (0x10001)
        X509v3 extensions:
            X509v3 Basic Constraints: 
                CA:FALSE
            X509v3 Subject Key Identifier: 
                DE:33:F1:06:A8:5D:17:64:C5:A8:80:D0:A6:C6:0A:FD:92:6D:2B:65
            X509v3 Authority Key Identifier: 
                keyid:B0:45:2A:82:AC:6C:72:86:0E:B3:22:4A:E4:7C:C9:86:41:66:90:DF
                DirName:/CN=main_server.local
                serial:5B:84:9B:38:8C:53:60:E6:48:B3:38:4E:E1:85:53:71:23:06:0E:24
            X509v3 Extended Key Usage: 
                TLS Web Server Authentication
            X509v3 Key Usage: 
                Digital Signature, Key Encipherment
            X509v3 Subject Alternative Name: 
                DNS:server
    Signature Algorithm: sha256WithRSAEncryption
    Signature Value:
        a0:0f:f0:dd:8f:c9:32:04:f8:54:97:4f:3e:3b:8d:68:50:2c:
        9d:c3:75:3f:a8:d0:3e:f0:b9:6c:a9:ad:9d:fe:4a:43:8a:a9:
        4e:02:38:89:2d:ee:9d:cb:57:7f:1e:0b:ce:08:94:8e:46:5e:
        47:90:6b:dc:a6:2d:f5:af:4c:c6:d6:fc:6c:49:62:75:8a:bd:
        e7:88:27:f5:af:99:a3:86:77:35:34:79:a5:2a:e7:02:e8:e5:
        dc:ab:b7:ee:ef:5b:65:df:5e:1e:6e:99:f3:35:3d:44:02:b8:
        f8:1e:3d:9c:fb:d6:37:7e:96:e8:fd:11:f3:42:19:fa:5f:06:
        91:5e:8c:76:7b:d7:3f:7c:2a:04:37:12:e0:67:06:27:66:a3:
        58:e2:54:39:f3:b1:ab:10:6b:00:f2:d8:6f:08:b9:6d:f9:8d:
        d2:eb:01:86:3d:6f:ce:1c:ca:90:2a:52:18:8d:c3:58:03:84:
        5c:46:35:35:52:13:8a:48:04:ad:22:fb:9e:d2:c3:c9:af:4e:
        ae:1c:a9:df:58:00:cb:bf:33:d8:58:ec:bf:cd:9a:c2:fc:a3:
        00:28:aa:5e:af:ae:5a:8e:b2:59:dc:fa:50:6a:9b:b7:e9:69:
        1d:87:34:89:bb:18:48:6d:83:eb:aa:f2:61:c2:92:85:10:a6:
        4d:a6:f3:ad
-----BEGIN CERTIFICATE-----
MIIDczCCAlugAwIBAgIQShGfXckjvKkumWEsXnWxEjANBgkqhkiG9w0BAQsFADAc
MRowGAYDVQQDDBFtYWluX3NlcnZlci5sb2NhbDAeFw0yMzA1MTIxMDU5MTNaFw0y
NTA4MTQxMDU5MTNaMBExDzANBgNVBAMMBnNlcnZlcjCCASIwDQYJKoZIhvcNAQEB
BQADggEPADCCAQoCggEBAOe/Xc74efWYxzLdr0Lo4LKw2450N99h3ABk9qxE1op/
qrUvMvfriTCexmiTLm7YKBgHYnfBhkijRO5y1kdxsSB0v6XWtqAIbWNSCIeASVhR
whwJnWIBwUQQd3W63FYYz0SaiMHjAq/jirPbi1YlfQ4O6+8yY4hmhuaH6k+AwOOq
uJ+31+KMuxNBFuKiOzX7APwUvdmc5l8xkIMoGWa+41comS2TTGVL9IiovsytGyx3
f3GdO9ctIsTcyzpJb6ZIGm2T3i9ZYNZt3+Dh14qF1BsvrnAOeBzuuaYkZIcKKH0z
bgOkcV6xXDKoREfZR6I3BKfN8P5aY1ebDqn98tLSAc0CAwEAAaOBuzCBuDAJBgNV
HRMEAjAAMB0GA1UdDgQWBBTeM/EGqF0XZMWogNCmxgr9km0rZTBXBgNVHSMEUDBO
gBSwRSqCrGxyhg6zIkrkfMmGQWaQ36EgpB4wHDEaMBgGA1UEAwwRbWFpbl9zZXJ2
ZXIubG9jYWyCFFuEmziMU2DmSLM4TuGFU3EjBg4kMBMGA1UdJQQMMAoGCCsGAQUF
BwMBMAsGA1UdDwQEAwIFoDARBgNVHREECjAIggZzZXJ2ZXIwDQYJKoZIhvcNAQEL
BQADggEBAKAP8N2PyTIE+FSXTz47jWhQLJ3DdT+o0D7wuWyprZ3+SkOKqU4COIkt
7p3LV38eC84IlI5GXkeQa9ymLfWvTMbW/GxJYnWKveeIJ/WvmaOGdzU0eaUq5wLo
5dyrt+7vW2XfXh5umfM1PUQCuPgePZz71jd+luj9EfNCGfpfBpFejHZ71z98KgQ3
EuBnBidmo1jiVDnzsasQawDy2G8IuW35jdLrAYY9b84cypAqUhiNw1gDhFxGNTVS
E4pIBK0i+57Sw8mvTq4cqd9YAMu/M9hY7L/NmsL8owAoql6vrlqOslnc+lBqm7fp
aR2HNIm7GEhtg+uq8mHCkoUQpk2m860=
-----END CERTIFICATE-----
