Certificate:
    Data:
        Version: 3 (0x2)
        Serial Number:
            9a:60:7b:2a:32:56:d3:f7:11:57:9e:c4:95:01:34:09
        Signature Algorithm: sha256WithRSAEncryption
        Issuer: CN=main_server.local
        Validity
            Not Before: May 12 10:59:13 2023 GMT
            Not After : Aug 14 10:59:13 2025 GMT
        Subject: CN=far
        Subject Public Key Info:
            Public Key Algorithm: rsaEncryption
                Public-Key: (2048 bit)
                Modulus:
                    00:b8:cf:ea:4c:88:b2:54:7b:f3:18:41:57:4a:b8:
                    9e:ac:42:8c:39:b0:31:fc:5b:9b:d6:6e:15:0a:08:
                    3d:6e:7d:2a:5a:ca:c1:42:59:48:1d:71:7c:d7:3d:
                    21:2e:05:21:21:70:88:21:dc:e1:ca:14:b2:f8:35:
                    b8:62:1e:a7:b5:04:fe:ff:45:c5:a2:0c:17:e7:64:
                    5d:71:f0:82:e9:89:21:7a:4c:c1:f7:84:72:13:99:
                    c6:c0:a0:1c:bd:8a:ac:63:1d:5c:88:c0:e8:2c:f7:
                    01:20:55:03:ab:cd:a9:bd:ed:d2:76:44:78:e5:0c:
                    84:ea:1b:7e:e0:c2:1a:bf:58:2d:ba:51:cc:9b:ca:
                    77:88:53:ae:da:f4:ce:2c:ad:bf:66:8c:4f:b9:d7:
                    a0:82:f4:62:8c:2c:07:be:33:9d:51:f6:a9:d7:d9:
                    61:2a:b9:8e:86:7c:3d:4d:92:21:8a:fc:35:a1:e8:
                    6e:38:f0:93:ef:dd:3d:ff:de:2b:4f:24:58:e1:36:
                    1a:a5:77:1a:33:6d:39:c2:c8:bf:d3:85:f7:d1:4d:
                    ee:e1:28:7c:3d:dc:d4:03:5b:2a:54:de:33:b3:16:
                    42:aa:d3:25:66:0f:8e:b6:60:6d:b5:5f:30:b8:ec:
                    8a:59:c7:93:cf:11:95:77:5a:2b:ce:cf:1c:b8:bd:
                    f3:7b
                Exponent: 65537 (0x10001)
        X509v3 extensions:
            X509v3 Basic Constraints: 
                CA:FALSE
            X509v3 Subject Key Identifier: 
                EB:AC:5F:22:39:90:D0:0B:08:E1:34:8E:9D:4E:9D:02:56:AD:CC:35
            X509v3 Authority Key Identifier: 
                keyid:B0:45:2A:82:AC:6C:72:86:0E:B3:22:4A:E4:7C:C9:86:41:66:90:DF
                DirName:/CN=main_server.local
                serial:5B:84:9B:38:8C:53:60:E6:48:B3:38:4E:E1:85:53:71:23:06:0E:24
            X509v3 Extended Key Usage: 
                TLS Web Client Authentication
            X509v3 Key Usage: 
                Digital Signature
    Signature Algorithm: sha256WithRSAEncryption
    Signature Value:
        7e:0f:a8:d3:47:b3:e4:33:cd:34:59:8d:cf:7d:f1:32:34:b9:
        d9:1b:fd:31:f6:e0:74:e9:99:cc:fb:73:e6:49:4c:c0:5a:47:
        d4:21:fa:89:56:27:5d:3d:fc:71:bb:a3:22:8f:4c:ce:be:5f:
        39:44:38:4a:be:4d:90:02:fa:20:b3:fb:ac:83:39:e6:6d:8e:
        ee:ba:4b:df:d1:74:b3:f0:30:93:54:16:cd:bc:fa:6a:a4:aa:
        c5:c1:7a:4e:7c:35:87:a5:70:00:2e:ab:5f:ba:59:d8:85:13:
        ad:68:3a:38:04:7a:03:ea:20:52:2d:e4:21:ea:9b:b9:40:77:
        04:64:d9:d2:90:f8:6a:21:e5:28:21:8c:cd:74:94:28:9e:94:
        93:cb:1b:a7:5b:cb:91:ff:e8:c0:56:ef:29:2c:87:19:b5:72:
        ce:4c:6f:66:c4:1e:30:ba:fd:e8:7a:6c:89:ea:da:f1:a5:f3:
        19:77:ad:ae:30:c3:52:f9:82:d3:b5:f2:d9:70:4d:f0:f4:a3:
        d7:2d:b5:12:2c:b5:d9:09:a7:2c:22:3d:02:6b:e0:3b:8e:10:
        9a:02:56:d7:88:7a:15:1e:ad:f5:ba:eb:6a:82:52:5f:d7:40:
        d1:c1:b9:28:e5:51:90:6b:ad:ab:a1:c4:eb:47:fc:64:fa:17:
        26:1d:8b:39
-----BEGIN CERTIFICATE-----
MIIDXjCCAkagAwIBAgIRAJpgeyoyVtP3EVeexJUBNAkwDQYJKoZIhvcNAQELBQAw
HDEaMBgGA1UEAwwRbWFpbl9zZXJ2ZXIubG9jYWwwHhcNMjMwNTEyMTA1OTEzWhcN
MjUwODE0MTA1OTEzWjAOMQwwCgYDVQQDDANmYXIwggEiMA0GCSqGSIb3DQEBAQUA
A4IBDwAwggEKAoIBAQC4z+pMiLJUe/MYQVdKuJ6sQow5sDH8W5vWbhUKCD1ufSpa
ysFCWUgdcXzXPSEuBSEhcIgh3OHKFLL4NbhiHqe1BP7/RcWiDBfnZF1x8ILpiSF6
TMH3hHITmcbAoBy9iqxjHVyIwOgs9wEgVQOrzam97dJ2RHjlDITqG37gwhq/WC26
UcybyneIU67a9M4srb9mjE+516CC9GKMLAe+M51R9qnX2WEquY6GfD1NkiGK/DWh
6G448JPv3T3/3itPJFjhNhqldxozbTnCyL/ThffRTe7hKHw93NQDWypU3jOzFkKq
0yVmD462YG21XzC47IpZx5PPEZV3WivOzxy4vfN7AgMBAAGjgagwgaUwCQYDVR0T
BAIwADAdBgNVHQ4EFgQU66xfIjmQ0AsI4TSOnU6dAlatzDUwVwYDVR0jBFAwToAU
sEUqgqxscoYOsyJK5HzJhkFmkN+hIKQeMBwxGjAYBgNVBAMMEW1haW5fc2VydmVy
LmxvY2FsghRbhJs4jFNg5kizOE7hhVNxIwYOJDATBgNVHSUEDDAKBggrBgEFBQcD
AjALBgNVHQ8EBAMCB4AwDQYJKoZIhvcNAQELBQADggEBAH4PqNNHs+QzzTRZjc99
8TI0udkb/TH24HTpmcz7c+ZJTMBaR9Qh+olWJ109/HG7oyKPTM6+XzlEOEq+TZAC
+iCz+6yDOeZtju66S9/RdLPwMJNUFs28+mqkqsXBek58NYelcAAuq1+6WdiFE61o
OjgEegPqIFIt5CHqm7lAdwRk2dKQ+Goh5SghjM10lCielJPLG6dby5H/6MBW7yks
hxm1cs5Mb2bEHjC6/eh6bInq2vGl8xl3ra4ww1L5gtO18tlwTfD0o9cttRIstdkJ
pywiPQJr4DuOEJoCVteIehUerfW662qCUl/XQNHBuSjlUZBrrauhxOtH/GT6FyYd
izk=
-----END CERTIFICATE-----
